; Function Attrs: nounwind uwtable
define i32 @FT_Get_PS_Font_Private(ptr noundef %0, ptr noundef %1) local_unnamed_addr #0 {
  %.not = icmp eq ptr %0, null
  br i1 %.not, label %.thread, label %3

3:                                                ; preds = %2
  %.not19 = icmp eq ptr %1, null
  br i1 %.not19, label %.thread, label %4

4:                                                ; preds = %3
  %5 = getelementptr inbounds nuw i8, ptr %0, i64 176
  %6 = load ptr, ptr %5, align 8, !tbaa !3
  %7 = load ptr, ptr %6, align 8, !tbaa !25
  %8 = getelementptr inbounds nuw i8, ptr %7, i64 64
  %9 = load ptr, ptr %8, align 8, !tbaa !29
  %.not20 = icmp eq ptr %9, null
  br i1 %.not20, label %.thread, label %10

10:                                               ; preds = %4
  %11 = tail call ptr %9(ptr noundef nonnull %6, ptr noundef nonnull @.str) #1
  %.not21 = icmp eq ptr %11, null
  br i1 %.not21, label %.thread, label %12

12:                                               ; preds = %10
  %13 = getelementptr inbounds nuw i8, ptr %11, i64 24
  %14 = load ptr, ptr %13, align 8, !tbaa !34
  %.not22 = icmp eq ptr %14, null
  br i1 %.not22, label %.thread, label %15

15:                                               ; preds = %12
  %16 = tail call i32 %14(ptr noundef nonnull %0, ptr noundef nonnull %1) #1
  br label %.thread

.thread:                                          ; preds = %4, %15, %12, %10, %3, %2
  %.013 = phi i32 [ 35, %2 ], [ 6, %3 ], [ %16, %15 ], [ 6, %12 ], [ 6, %10 ], [ 6, %4 ]
  ret i32 %.013
}